; Function Attrs: mustprogress nounwind uwtable
define hidden noundef ptr @_ZN20JfrCheckpointManager28acquire_virtual_thread_localEP6Threadm(ptr noundef %0, i64 noundef %1) local_unnamed_addr #1 align 2 {
  %3 = load i8, ptr @_ZN15JfrTraceIdEpoch12_epoch_stateE, align 1
  %4 = trunc i8 %3 to i1
  %.in.v.i = select i1 %4, i64 640, i64 632
  %.in.i = getelementptr inbounds i8, ptr %0, i64 %.in.v.i
  %5 = load ptr, ptr %.in.i, align 8
  %6 = icmp eq ptr %5, null
  br i1 %6, label %21, label %7

7:                                                ; preds = %2
  %8 = getelementptr inbounds i8, ptr %5, i64 40
  %9 = load i16, ptr %8, align 8
  %10 = zext i16 %9 to i64
  %11 = getelementptr inbounds i8, ptr %5, i64 %10
  %12 = getelementptr inbounds i8, ptr %5, i64 32
  %13 = load i64, ptr %12, align 8
  %14 = getelementptr inbounds i8, ptr %11, i64 %13
  %15 = getelementptr inbounds i8, ptr %5, i64 16
  %16 = load volatile ptr, ptr %15, align 8
  tail call void asm sideeffect "", "~{memory},~{dirflag},~{fpsr},~{flags}"() #20, !srcloc !8
  %17 = ptrtoint ptr %14 to i64
  %18 = ptrtoint ptr %16 to i64
  %19 = sub i64 %17, %18
  %20 = icmp ult i64 %19, %1
  br i1 %20, label %21, label %29

21:                                               ; preds = %7, %2
  %22 = load ptr, ptr @_ZL9_instance, align 8
  %23 = getelementptr inbounds i8, ptr %22, i64 16
  %24 = load ptr, ptr %23, align 8
  %25 = tail call noundef ptr @_ZN19JfrEpochStorageHostI9JfrBuffer24JfrMspaceRemoveRetrievalLb1EE7acquireEmP6Thread(ptr noundef nonnull align 8 dereferenceable(8) %24, i64 noundef %1, ptr noundef nonnull %0)
  tail call void @_ZN9JfrBuffer11set_contextEh(ptr noundef nonnull align 8 dereferenceable(48) %25, i8 noundef zeroext 2) #20
  %26 = load i8, ptr @_ZN15JfrTraceIdEpoch12_epoch_stateE, align 1
  %27 = trunc i8 %26 to i1
  %..i.i = select i1 %27, i64 640, i64 632
  %28 = getelementptr inbounds i8, ptr %0, i64 %..i.i
  store ptr %25, ptr %28, align 8
  br label %29

29:                                               ; preds = %21, %7
  %.0 = phi ptr [ %25, %21 ], [ %5, %7 ]
  ret ptr %.0
}